; Function Attrs: nofree norecurse nosync nounwind memory(read, inaccessiblemem: none) uwtable
define range(i32 -2147483648, 2147483647) i32 @Nwk_ObjFindFanin(ptr noundef readonly captures(none) %0, ptr noundef readnone %1) local_unnamed_addr #1 {
  %3 = getelementptr inbounds nuw i8, ptr %0, i64 60
  %4 = load i32, ptr %3, align 4
  %5 = icmp sgt i32 %4, 0
  br i1 %5, label %.lr.ph, label %.critedge

.lr.ph:                                           ; preds = %2
  %6 = getelementptr inbounds nuw i8, ptr %0, i64 72
  %7 = load ptr, ptr %6, align 8
  %wide.trip.count = zext nneg i32 %4 to i64
  br label %8

8:                                                ; preds = %.lr.ph, %13
  %indvars.iv = phi i64 [ 0, %.lr.ph ], [ %indvars.iv.next, %13 ]
  %9 = getelementptr inbounds nuw ptr, ptr %7, i64 %indvars.iv
  %10 = load ptr, ptr %9, align 8
  %.not = icmp eq ptr %10, null
  br i1 %.not, label %.critedge, label %11

11:                                               ; preds = %8
  %12 = icmp eq ptr %10, %1
  br i1 %12, label %.critedge.loopexit.split.loop.exit18, label %13

13:                                               ; preds = %11
  %indvars.iv.next = add nuw nsw i64 %indvars.iv, 1
  %exitcond.not = icmp eq i64 %indvars.iv.next, %wide.trip.count
  br i1 %exitcond.not, label %.critedge, label %8, !llvm.loop !7

.critedge.loopexit.split.loop.exit18:             ; preds = %11
  %14 = trunc nuw nsw i64 %indvars.iv to i32
  br label %.critedge

.critedge:                                        ; preds = %8, %13, %.critedge.loopexit.split.loop.exit18, %2
  %.08 = phi i32 [ -1, %2 ], [ %14, %.critedge.loopexit.split.loop.exit18 ], [ -1, %13 ], [ -1, %8 ]
  ret i32 %.08
}